target datalayout = "e-m:e-p270:32:32-p271:32:32-p272:64:64-i64:64-i128:128-f80:128-n8:16:32:64-S128"
target triple = "x86_64-pc-linux-gnu"

%struct.PJconsts = type { ptr, ptr, ptr, ptr, ptr, ptr, ptr, ptr, ptr, ptr, ptr, ptr, i32, ptr, ptr, ptr, ptr, ptr, ptr, ptr, ptr, double, double, double, double, double, double, double, double, double, double, double, double, double, double, double, double, double, double, double, double, double, double, i32, i32, i32, i32, i32, i32, i32, i32, i32, i32, i32, ptr, ptr, ptr, ptr, ptr, ptr, double, double, double, double, double, double, double, double, double, double, double, i32, [7 x double], i32, ptr, ptr, double, double, i32, [4 x i8], %"class.std::shared_ptr", i8, double, i8, %"class.std::__cxx11::basic_string", %"class.std::__cxx11::basic_string", %"class.std::__cxx11::basic_string", i8, %"class.std::vector", i32, %"class.std::vector.3", i32, i8, i8, i8, ptr }
%"class.std::shared_ptr" = type { %"class.std::__shared_ptr" }
%"class.std::__shared_ptr" = type { ptr, %"class.std::__shared_count" }
%"class.std::__shared_count" = type { ptr }
%"class.std::__cxx11::basic_string" = type { %"struct.std::__cxx11::basic_string<char>::_Alloc_hider", i64, %union.anon }
%"struct.std::__cxx11::basic_string<char>::_Alloc_hider" = type { ptr }
%union.anon = type { i64, [8 x i8] }
%"class.std::vector" = type { %"struct.std::_Vector_base" }
%"struct.std::_Vector_base" = type { %"struct.std::_Vector_base<osgeo::proj::operation::GridDescription, std::allocator<osgeo::proj::operation::GridDescription>>::_Vector_impl" }
%"struct.std::_Vector_base<osgeo::proj::operation::GridDescription, std::allocator<osgeo::proj::operation::GridDescription>>::_Vector_impl" = type { %"struct.std::_Vector_base<osgeo::proj::operation::GridDescription, std::allocator<osgeo::proj::operation::GridDescription>>::_Vector_impl_data" }
%"struct.std::_Vector_base<osgeo::proj::operation::GridDescription, std::allocator<osgeo::proj::operation::GridDescription>>::_Vector_impl_data" = type { ptr, ptr, ptr }
%"class.std::vector.3" = type { %"struct.std::_Vector_base.4" }
%"struct.std::_Vector_base.4" = type { %"struct.std::_Vector_base<PJCoordOperation, std::allocator<PJCoordOperation>>::_Vector_impl" }
%"struct.std::_Vector_base<PJCoordOperation, std::allocator<PJCoordOperation>>::_Vector_impl" = type { %"struct.std::_Vector_base<PJCoordOperation, std::allocator<PJCoordOperation>>::_Vector_impl_data" }
%"struct.std::_Vector_base<PJCoordOperation, std::allocator<PJCoordOperation>>::_Vector_impl_data" = type { ptr, ptr, ptr }
%"struct.(anonymous namespace)::pj_stere" = type { double, double, double, double, i32 }
%struct.PJ_LP = type { double, double }
%struct.PJ_XY = type { double, double }

; Function Attrs: mustprogress uwtable
define internal { double, double } @_ZL15stere_e_inverse5PJ_XYP8PJconsts(double %0, double %1, ptr noundef %2) #0 {
  %4 = alloca %struct.PJ_LP, align 8
  %5 = alloca %struct.PJ_XY, align 8
  %6 = alloca ptr, align 8
  %7 = alloca ptr, align 8
  %8 = alloca double, align 8
  %9 = alloca double, align 8
  %10 = alloca double, align 8
  %11 = alloca double, align 8
  %12 = alloca double, align 8
  %13 = alloca double, align 8
  %14 = alloca double, align 8
  %15 = alloca i32, align 4
  %16 = alloca i32, align 4
  %17 = getelementptr inbounds nuw { double, double }, ptr %5, i32 0, i32 0
  store double %0, ptr %17, align 8
  %18 = getelementptr inbounds nuw { double, double }, ptr %5, i32 0, i32 1
  store double %1, ptr %18, align 8
  store ptr %2, ptr %6, align 8, !tbaa !3
  call void @llvm.memset.p0.i64(ptr align 8 %4, i8 0, i64 16, i1 false)
  call void @llvm.lifetime.start.p0(i64 8, ptr %7) #9
  %19 = load ptr, ptr %6, align 8, !tbaa !3
  %20 = getelementptr inbounds nuw %struct.PJconsts, ptr %19, i32 0, i32 11
  %21 = load ptr, ptr %20, align 8, !tbaa !43
  store ptr %21, ptr %7, align 8, !tbaa !41
  call void @llvm.lifetime.start.p0(i64 8, ptr %8) #9
  call void @llvm.lifetime.start.p0(i64 8, ptr %9) #9
  call void @llvm.lifetime.start.p0(i64 8, ptr %10) #9
  store double 0.000000e+00, ptr %10, align 8, !tbaa !50
  call void @llvm.lifetime.start.p0(i64 8, ptr %11) #9
  store double 0.000000e+00, ptr %11, align 8, !tbaa !50
  call void @llvm.lifetime.start.p0(i64 8, ptr %12) #9
  call void @llvm.lifetime.start.p0(i64 8, ptr %13) #9
  store double 0.000000e+00, ptr %13, align 8, !tbaa !50
  call void @llvm.lifetime.start.p0(i64 8, ptr %14) #9
  store double 0.000000e+00, ptr %14, align 8, !tbaa !50
  %22 = getelementptr inbounds nuw %struct.PJ_XY, ptr %5, i32 0, i32 0
  %23 = load double, ptr %22, align 8, !tbaa !64
  %24 = getelementptr inbounds nuw %struct.PJ_XY, ptr %5, i32 0, i32 1
  %25 = load double, ptr %24, align 8, !tbaa !66
  %26 = call double @hypot(double noundef %23, double noundef %25) #9, !tbaa !55
  store double %26, ptr %12, align 8, !tbaa !50
  %27 = load ptr, ptr %7, align 8, !tbaa !41
  %28 = getelementptr inbounds nuw %"struct.(anonymous namespace)::pj_stere", ptr %27, i32 0, i32 4
  %29 = load i32, ptr %28, align 8, !tbaa !51
  switch i32 %29, label %120 [
    i32 2, label %30
    i32 3, label %30
    i32 1, label %101
    i32 0, label %106
  ]

30:                                               ; preds = %3, %3
  %31 = load double, ptr %12, align 8, !tbaa !50
  %32 = load ptr, ptr %7, align 8, !tbaa !41
  %33 = getelementptr inbounds nuw %"struct.(anonymous namespace)::pj_stere", ptr %32, i32 0, i32 2
  %34 = load double, ptr %33, align 8, !tbaa !58
  %35 = fmul double %31, %34
  %36 = load ptr, ptr %7, align 8, !tbaa !41
  %37 = getelementptr inbounds nuw %"struct.(anonymous namespace)::pj_stere", ptr %36, i32 0, i32 3
  %38 = load double, ptr %37, align 8, !tbaa !56
  %39 = call double @atan2(double noundef %35, double noundef %38) #9, !tbaa !55
  %40 = fmul double 2.000000e+00, %39
  store double %40, ptr %10, align 8, !tbaa !50
  %41 = load double, ptr %10, align 8, !tbaa !50
  %42 = call double @cos(double noundef %41) #9, !tbaa !55
  store double %42, ptr %8, align 8, !tbaa !50
  %43 = load double, ptr %10, align 8, !tbaa !50
  %44 = call double @sin(double noundef %43) #9, !tbaa !55
  store double %44, ptr %9, align 8, !tbaa !50
  %45 = load double, ptr %12, align 8, !tbaa !50
  %46 = fcmp oeq double %45, 0.000000e+00
  br i1 %46, label %47, label %54

47:                                               ; preds = %30
  %48 = load double, ptr %8, align 8, !tbaa !50
  %49 = load ptr, ptr %7, align 8, !tbaa !41
  %50 = getelementptr inbounds nuw %"struct.(anonymous namespace)::pj_stere", ptr %49, i32 0, i32 1
  %51 = load double, ptr %50, align 8, !tbaa !57
  %52 = fmul double %48, %51
  %53 = call double @asin(double noundef %52) #9, !tbaa !55
  store double %53, ptr %11, align 8, !tbaa !50
  br label %71

54:                                               ; preds = %30
  %55 = load double, ptr %8, align 8, !tbaa !50
  %56 = load ptr, ptr %7, align 8, !tbaa !41
  %57 = getelementptr inbounds nuw %"struct.(anonymous namespace)::pj_stere", ptr %56, i32 0, i32 1
  %58 = load double, ptr %57, align 8, !tbaa !57
  %59 = getelementptr inbounds nuw %struct.PJ_XY, ptr %5, i32 0, i32 1
  %60 = load double, ptr %59, align 8, !tbaa !66
  %61 = load double, ptr %9, align 8, !tbaa !50
  %62 = fmul double %60, %61
  %63 = load ptr, ptr %7, align 8, !tbaa !41
  %64 = getelementptr inbounds nuw %"struct.(anonymous namespace)::pj_stere", ptr %63, i32 0, i32 2
  %65 = load double, ptr %64, align 8, !tbaa !58
  %66 = fmul double %62, %65
  %67 = load double, ptr %12, align 8, !tbaa !50
  %68 = fdiv double %66, %67
  %69 = call double @llvm.fmuladd.f64(double %55, double %58, double %68)
  %70 = call double @asin(double noundef %69) #9, !tbaa !55
  store double %70, ptr %11, align 8, !tbaa !50
  br label %71

71:                                               ; preds = %54, %47
  %72 = load double, ptr %11, align 8, !tbaa !50
  %73 = fadd double 0x3FF921FB54442D18, %72
  %74 = fmul double 5.000000e-01, %73
  %75 = call double @tan(double noundef %74) #9, !tbaa !55
  store double %75, ptr %10, align 8, !tbaa !50
  %76 = load double, ptr %9, align 8, !tbaa !50
  %77 = getelementptr inbounds nuw %struct.PJ_XY, ptr %5, i32 0, i32 0
  %78 = load double, ptr %77, align 8, !tbaa !64
  %79 = fmul double %78, %76
  store double %79, ptr %77, align 8, !tbaa !64
  %80 = load double, ptr %12, align 8, !tbaa !50
  %81 = load ptr, ptr %7, align 8, !tbaa !41
  %82 = getelementptr inbounds nuw %"struct.(anonymous namespace)::pj_stere", ptr %81, i32 0, i32 2
  %83 = load double, ptr %82, align 8, !tbaa !58
  %84 = fmul double %80, %83
  %85 = load double, ptr %8, align 8, !tbaa !50
  %86 = getelementptr inbounds nuw %struct.PJ_XY, ptr %5, i32 0, i32 1
  %87 = load double, ptr %86, align 8, !tbaa !66
  %88 = load ptr, ptr %7, align 8, !tbaa !41
  %89 = getelementptr inbounds nuw %"struct.(anonymous namespace)::pj_stere", ptr %88, i32 0, i32 1
  %90 = load double, ptr %89, align 8, !tbaa !57
  %91 = fmul double %87, %90
  %92 = load double, ptr %9, align 8, !tbaa !50
  %93 = fmul double %91, %92
  %94 = fneg double %93
  %95 = call double @llvm.fmuladd.f64(double %84, double %85, double %94)
  %96 = getelementptr inbounds nuw %struct.PJ_XY, ptr %5, i32 0, i32 1
  store double %95, ptr %96, align 8, !tbaa !66
  store double 0x3FF921FB54442D18, ptr %14, align 8, !tbaa !50
  %97 = load ptr, ptr %6, align 8, !tbaa !3
  %98 = getelementptr inbounds nuw %struct.PJconsts, ptr %97, i32 0, i32 26
  %99 = load double, ptr %98, align 8, !tbaa !54
  %100 = fmul double 5.000000e-01, %99
  store double %100, ptr %13, align 8, !tbaa !50
  br label %120

101:                                              ; preds = %3
  %102 = getelementptr inbounds nuw %struct.PJ_XY, ptr %5, i32 0, i32 1
  %103 = load double, ptr %102, align 8, !tbaa !66
  %104 = fneg double %103
  %105 = getelementptr inbounds nuw %struct.PJ_XY, ptr %5, i32 0, i32 1
  store double %104, ptr %105, align 8, !tbaa !66
  br label %106

106:                                              ; preds = %3, %101
  %107 = load double, ptr %12, align 8, !tbaa !50
  %108 = fneg double %107
  %109 = load ptr, ptr %7, align 8, !tbaa !41
  %110 = getelementptr inbounds nuw %"struct.(anonymous namespace)::pj_stere", ptr %109, i32 0, i32 3
  %111 = load double, ptr %110, align 8, !tbaa !56
  %112 = fdiv double %108, %111
  store double %112, ptr %10, align 8, !tbaa !50
  %113 = load double, ptr %10, align 8, !tbaa !50
  %114 = call double @atan(double noundef %113) #9, !tbaa !55
  %115 = call double @llvm.fmuladd.f64(double -2.000000e+00, double %114, double 0x3FF921FB54442D18)
  store double %115, ptr %11, align 8, !tbaa !50
  store double 0xBFF921FB54442D18, ptr %14, align 8, !tbaa !50
  %116 = load ptr, ptr %6, align 8, !tbaa !3
  %117 = getelementptr inbounds nuw %struct.PJconsts, ptr %116, i32 0, i32 26
  %118 = load double, ptr %117, align 8, !tbaa !54
  %119 = fmul double -5.000000e-01, %118
  store double %119, ptr %13, align 8, !tbaa !50
  br label %120

120:                                              ; preds = %3, %106, %71
  call void @llvm.lifetime.start.p0(i64 4, ptr %15) #9
  store i32 8, ptr %15, align 4, !tbaa !55
  br label %121

121:                                              ; preds = %183, %120
  %122 = load i32, ptr %15, align 4, !tbaa !55
  %123 = icmp sgt i32 %122, 0
  br i1 %123, label %125, label %124

124:                                              ; preds = %121
  store i32 3, ptr %16, align 4
  br label %186

125:                                              ; preds = %121
  %126 = load ptr, ptr %6, align 8, !tbaa !3
  %127 = getelementptr inbounds nuw %struct.PJconsts, ptr %126, i32 0, i32 26
  %128 = load double, ptr %127, align 8, !tbaa !54
  %129 = load double, ptr %11, align 8, !tbaa !50
  %130 = call double @sin(double noundef %129) #9, !tbaa !55
  %131 = fmul double %128, %130
  store double %131, ptr %9, align 8, !tbaa !50
  %132 = load double, ptr %10, align 8, !tbaa !50
  %133 = load double, ptr %9, align 8, !tbaa !50
  %134 = fadd double 1.000000e+00, %133
  %135 = load double, ptr %9, align 8, !tbaa !50
  %136 = fsub double 1.000000e+00, %135
  %137 = fdiv double %134, %136
  %138 = load double, ptr %13, align 8, !tbaa !50
  %139 = call double @pow(double noundef %137, double noundef %138) #9, !tbaa !55
  %140 = fmul double %132, %139
  %141 = call double @atan(double noundef %140) #9, !tbaa !55
  %142 = load double, ptr %14, align 8, !tbaa !50
  %143 = fneg double %142
  %144 = call double @llvm.fmuladd.f64(double 2.000000e+00, double %141, double %143)
  %145 = getelementptr inbounds nuw %struct.PJ_LP, ptr %4, i32 0, i32 1
  store double %144, ptr %145, align 8, !tbaa !67
  %146 = load double, ptr %11, align 8, !tbaa !50
  %147 = getelementptr inbounds nuw %struct.PJ_LP, ptr %4, i32 0, i32 1
  %148 = load double, ptr %147, align 8, !tbaa !67
  %149 = fsub double %146, %148
  %150 = call double @llvm.fabs.f64(double %149)
  %151 = fcmp olt double %150, 1.000000e-10
  br i1 %151, label %152, label %180

152:                                              ; preds = %125
  %153 = load ptr, ptr %7, align 8, !tbaa !41
  %154 = getelementptr inbounds nuw %"struct.(anonymous namespace)::pj_stere", ptr %153, i32 0, i32 4
  %155 = load i32, ptr %154, align 8, !tbaa !51
  %156 = icmp eq i32 %155, 0
  br i1 %156, label %157, label %162

157:                                              ; preds = %152
  %158 = getelementptr inbounds nuw %struct.PJ_LP, ptr %4, i32 0, i32 1
  %159 = load double, ptr %158, align 8, !tbaa !67
  %160 = fneg double %159
  %161 = getelementptr inbounds nuw %struct.PJ_LP, ptr %4, i32 0, i32 1
  store double %160, ptr %161, align 8, !tbaa !67
  br label %162

162:                                              ; preds = %157, %152
  %163 = getelementptr inbounds nuw %struct.PJ_XY, ptr %5, i32 0, i32 0
  %164 = load double, ptr %163, align 8, !tbaa !64
  %165 = fcmp oeq double %164, 0.000000e+00
  br i1 %165, label %166, label %171

166:                                              ; preds = %162
  %167 = getelementptr inbounds nuw %struct.PJ_XY, ptr %5, i32 0, i32 1
  %168 = load double, ptr %167, align 8, !tbaa !66
  %169 = fcmp oeq double %168, 0.000000e+00
  br i1 %169, label %170, label %171

170:                                              ; preds = %166
  br label %177

171:                                              ; preds = %166, %162
  %172 = getelementptr inbounds nuw %struct.PJ_XY, ptr %5, i32 0, i32 0
  %173 = load double, ptr %172, align 8, !tbaa !64
  %174 = getelementptr inbounds nuw %struct.PJ_XY, ptr %5, i32 0, i32 1
  %175 = load double, ptr %174, align 8, !tbaa !66
  %176 = call double @atan2(double noundef %173, double noundef %175) #9, !tbaa !55
  br label %177

177:                                              ; preds = %171, %170
  %178 = phi double [ 0.000000e+00, %170 ], [ %176, %171 ]
  %179 = getelementptr inbounds nuw %struct.PJ_LP, ptr %4, i32 0, i32 0
  store double %178, ptr %179, align 8, !tbaa !69
  store i32 1, ptr %16, align 4
  br label %186

180:                                              ; preds = %125
  %181 = getelementptr inbounds nuw %struct.PJ_LP, ptr %4, i32 0, i32 1
  %182 = load double, ptr %181, align 8, !tbaa !67
  store double %182, ptr %11, align 8, !tbaa !50
  br label %183

183:                                              ; preds = %180
  %184 = load i32, ptr %15, align 4, !tbaa !55
  %185 = add nsw i32 %184, -1
  store i32 %185, ptr %15, align 4, !tbaa !55
  br label %121, !llvm.loop !70

186:                                              ; preds = %177, %124
  call void @llvm.lifetime.end.p0(i64 4, ptr %15) #9
  %187 = load i32, ptr %16, align 4
  switch i32 %187, label %191 [
    i32 3, label %188
  ]

188:                                              ; preds = %186
  %189 = load ptr, ptr %6, align 8, !tbaa !3
  %190 = call i32 @proj_errno_set(ptr noundef %189, i32 noundef 2050)
  store i32 1, ptr %16, align 4
  br label %191

191:                                              ; preds = %188, %186
  call void @llvm.lifetime.end.p0(i64 8, ptr %14) #9
  call void @llvm.lifetime.end.p0(i64 8, ptr %13) #9
  call void @llvm.lifetime.end.p0(i64 8, ptr %12) #9
  call void @llvm.lifetime.end.p0(i64 8, ptr %11) #9
  call void @llvm.lifetime.end.p0(i64 8, ptr %10) #9
  call void @llvm.lifetime.end.p0(i64 8, ptr %9) #9
  call void @llvm.lifetime.end.p0(i64 8, ptr %8) #9
  call void @llvm.lifetime.end.p0(i64 8, ptr %7) #9
  %192 = load { double, double }, ptr %4, align 8
  ret { double, double } %192
}