; Function Attrs: mustprogress uwtable
define internal { double, double } @_ZL15stere_e_inverse5PJ_XYP8PJconsts(double %0, double %1, ptr noundef %2) #0 {
  %4 = getelementptr inbounds nuw i8, ptr %2, i64 88
  %5 = load ptr, ptr %4, align 8, !tbaa !3
  %6 = tail call double @hypot(double noundef %0, double noundef %1) #8, !tbaa !50
  %7 = getelementptr inbounds nuw i8, ptr %5, i64 32
  %8 = load i32, ptr %7, align 8, !tbaa !46
  switch i32 %8, label %._crit_edge [
    i32 2, label %9
    i32 3, label %9
    i32 1, label %42
    i32 0, label %44
  ]

._crit_edge:                                      ; preds = %3
  %.phi.trans.insert = getelementptr inbounds nuw i8, ptr %2, i64 208
  %.pre = load double, ptr %.phi.trans.insert, align 8, !tbaa !49
  br label %54

9:                                                ; preds = %3, %3
  %10 = getelementptr inbounds nuw i8, ptr %5, i64 16
  %11 = load double, ptr %10, align 8, !tbaa !53
  %12 = fmul double %6, %11
  %13 = getelementptr inbounds nuw i8, ptr %5, i64 24
  %14 = load double, ptr %13, align 8, !tbaa !51
  %15 = tail call double @atan2(double noundef %12, double noundef %14) #8, !tbaa !50
  %16 = fmul double %15, 2.000000e+00
  %17 = tail call double @cos(double noundef %16) #8, !tbaa !50
  %18 = tail call double @sin(double noundef %16) #8, !tbaa !50
  %19 = fcmp oeq double %6, 0.000000e+00
  %20 = getelementptr inbounds nuw i8, ptr %5, i64 8
  %21 = load double, ptr %20, align 8, !tbaa !52
  br i1 %19, label %22, label %24

22:                                               ; preds = %9
  %23 = fmul double %17, %21
  br label %29

24:                                               ; preds = %9
  %25 = fmul double %1, %18
  %26 = fmul double %11, %25
  %27 = fdiv double %26, %6
  %28 = tail call double @llvm.fmuladd.f64(double %17, double %21, double %27)
  br label %29

29:                                               ; preds = %24, %22
  %.sink = phi double [ %28, %24 ], [ %23, %22 ]
  %30 = tail call double @asin(double noundef %.sink) #8, !tbaa !50
  %31 = fadd double %30, 0x3FF921FB54442D18
  %32 = fmul double %31, 5.000000e-01
  %33 = tail call double @tan(double noundef %32) #8, !tbaa !50
  %34 = fmul double %0, %18
  %35 = fmul double %1, %21
  %36 = fneg double %18
  %37 = fmul double %35, %36
  %38 = tail call double @llvm.fmuladd.f64(double %12, double %17, double %37)
  %39 = getelementptr inbounds nuw i8, ptr %2, i64 208
  %40 = load double, ptr %39, align 8, !tbaa !49
  %41 = fmul double %40, 5.000000e-01
  br label %54

42:                                               ; preds = %3
  %43 = fneg double %1
  br label %44

44:                                               ; preds = %42, %3
  %.sroa.6.1 = phi double [ %1, %3 ], [ %43, %42 ]
  %45 = fneg double %6
  %46 = getelementptr inbounds nuw i8, ptr %5, i64 24
  %47 = load double, ptr %46, align 8, !tbaa !51
  %48 = fdiv double %45, %47
  %49 = tail call double @atan(double noundef %48) #8, !tbaa !50
  %50 = tail call double @llvm.fmuladd.f64(double %49, double -2.000000e+00, double 0x3FF921FB54442D18)
  %51 = getelementptr inbounds nuw i8, ptr %2, i64 208
  %52 = load double, ptr %51, align 8, !tbaa !49
  %53 = fmul double %52, -5.000000e-01
  br label %54

54:                                               ; preds = %._crit_edge, %44, %29
  %55 = phi double [ %.pre, %._crit_edge ], [ %52, %44 ], [ %40, %29 ]
  %.sroa.0.0 = phi double [ %0, %._crit_edge ], [ %0, %44 ], [ %34, %29 ]
  %.sroa.6.0 = phi double [ %1, %._crit_edge ], [ %.sroa.6.1, %44 ], [ %38, %29 ]
  %.056 = phi double [ 0.000000e+00, %._crit_edge ], [ %48, %44 ], [ %33, %29 ]
  %.055 = phi double [ 0.000000e+00, %._crit_edge ], [ %50, %44 ], [ %30, %29 ]
  %.054 = phi double [ 0.000000e+00, %._crit_edge ], [ %53, %44 ], [ %41, %29 ]
  %.053 = phi double [ 0.000000e+00, %._crit_edge ], [ 0xBFF921FB54442D18, %44 ], [ 0x3FF921FB54442D18, %29 ]
  %56 = fneg double %.053
  br label %60

57:                                               ; preds = %60
  %58 = add nsw i32 %.05264, -1
  %59 = icmp ult i32 %.05264, 2
  br i1 %59, label %80, label %60, !llvm.loop !59

60:                                               ; preds = %54, %57
  %.05264 = phi i32 [ 8, %54 ], [ %58, %57 ]
  %.263 = phi double [ %.055, %54 ], [ %69, %57 ]
  %61 = tail call double @sin(double noundef %.263) #8, !tbaa !50
  %62 = fmul double %55, %61
  %63 = fadd double %62, 1.000000e+00
  %64 = fsub double 1.000000e+00, %62
  %65 = fdiv double %63, %64
  %66 = tail call double @pow(double noundef %65, double noundef %.054) #8, !tbaa !50
  %67 = fmul double %.056, %66
  %68 = tail call double @atan(double noundef %67) #8, !tbaa !50
  %69 = tail call double @llvm.fmuladd.f64(double %68, double 2.000000e+00, double %56)
  %70 = fsub double %.263, %69
  %71 = tail call double @llvm.fabs.f64(double %70)
  %72 = fcmp olt double %71, 1.000000e-10
  br i1 %72, label %73, label %57

73:                                               ; preds = %60
  %74 = icmp eq i32 %8, 0
  %75 = fneg double %69
  %.sroa.3.2 = select i1 %74, double %75, double %69
  %76 = fcmp oeq double %.sroa.0.0, 0.000000e+00
  %77 = fcmp oeq double %.sroa.6.0, 0.000000e+00
  %or.cond = select i1 %76, i1 %77, i1 false
  br i1 %or.cond, label %.thread, label %78

78:                                               ; preds = %73
  %79 = tail call double @atan2(double noundef %.sroa.0.0, double noundef %.sroa.6.0) #8, !tbaa !50
  br label %.thread

80:                                               ; preds = %57
  %81 = tail call i32 @proj_errno_set(ptr noundef nonnull %2, i32 noundef 2050)
  br label %.thread

.thread:                                          ; preds = %73, %78, %80
  %.sroa.049.061 = phi double [ 0.000000e+00, %80 ], [ 0.000000e+00, %73 ], [ %79, %78 ]
  %.sroa.3.160 = phi double [ %69, %80 ], [ %.sroa.3.2, %73 ], [ %.sroa.3.2, %78 ]
  %.fca.0.insert = insertvalue { double, double } poison, double %.sroa.049.061, 0
  %.fca.1.insert = insertvalue { double, double } %.fca.0.insert, double %.sroa.3.160, 1
  ret { double, double } %.fca.1.insert
}